target datalayout = "e-m:e-p270:32:32-p271:32:32-p272:64:64-i64:64-i128:128-f80:128-n8:16:32:64-S128"
target triple = "x86_64-pc-linux-gnu"

%struct.tag_arguments_tag = type { i32, i32, ptr, ptr, ptr }
%struct.tag_contents = type { i64, [1025 x i8] }

@.str.52 = private unnamed_addr constant [57 x i8] c"html_tag_contents_done: Unable to allocate memory for p\0A\00", align 1

; Function Attrs: inlinehint nounwind uwtable
define internal void @html_tag_contents_done(ptr noundef %0, i32 noundef %1, ptr noundef %2) #8 {
  %4 = alloca ptr, align 8
  %5 = alloca i32, align 4
  %6 = alloca ptr, align 8
  %7 = alloca ptr, align 8
  %8 = alloca i32, align 4
  store ptr %0, ptr %4, align 8, !tbaa !3
  store i32 %1, ptr %5, align 4, !tbaa !14
  store ptr %2, ptr %6, align 8, !tbaa !75
  call void @llvm.lifetime.start.p0(i64 8, ptr %7) #12
  %9 = load ptr, ptr %6, align 8, !tbaa !75
  %10 = getelementptr inbounds nuw %struct.tag_contents, ptr %9, i32 0, i32 1
  %11 = load ptr, ptr %6, align 8, !tbaa !75
  %12 = getelementptr inbounds nuw %struct.tag_contents, ptr %11, i32 0, i32 0
  %13 = load i64, ptr %12, align 8, !tbaa !53
  %14 = add i64 %13, 1
  store i64 %14, ptr %12, align 8, !tbaa !53
  %15 = getelementptr inbounds nuw [1025 x i8], ptr %10, i64 0, i64 %13
  store i8 0, ptr %15, align 1, !tbaa !20
  %16 = load ptr, ptr %6, align 8, !tbaa !75
  %17 = getelementptr inbounds nuw %struct.tag_contents, ptr %16, i32 0, i32 0
  %18 = load i64, ptr %17, align 8, !tbaa !53
  %19 = call ptr @cli_max_malloc(i64 noundef %18)
  store ptr %19, ptr %7, align 8, !tbaa !8
  %20 = load ptr, ptr %7, align 8, !tbaa !8
  %21 = icmp ne ptr %20, null
  br i1 %21, label %23, label %22

22:                                               ; preds = %3
  call void (ptr, ...) @cli_errmsg(ptr noundef @.str.52)
  store i32 1, ptr %8, align 4
  br label %41

23:                                               ; preds = %3
  %24 = load ptr, ptr %7, align 8, !tbaa !8
  %25 = load ptr, ptr %6, align 8, !tbaa !75
  %26 = getelementptr inbounds nuw %struct.tag_contents, ptr %25, i32 0, i32 1
  %27 = getelementptr inbounds [1025 x i8], ptr %26, i64 0, i64 0
  %28 = load ptr, ptr %6, align 8, !tbaa !75
  %29 = getelementptr inbounds nuw %struct.tag_contents, ptr %28, i32 0, i32 0
  %30 = load i64, ptr %29, align 8, !tbaa !53
  call void @llvm.memcpy.p0.p0.i64(ptr align 1 %24, ptr align 8 %27, i64 %30, i1 false)
  %31 = load ptr, ptr %7, align 8, !tbaa !8
  %32 = load ptr, ptr %4, align 8, !tbaa !3
  %33 = getelementptr inbounds nuw %struct.tag_arguments_tag, ptr %32, i32 0, i32 4
  %34 = load ptr, ptr %33, align 8, !tbaa !19
  %35 = load i32, ptr %5, align 4, !tbaa !14
  %36 = sub nsw i32 %35, 1
  %37 = sext i32 %36 to i64
  %38 = getelementptr inbounds ptr, ptr %34, i64 %37
  store ptr %31, ptr %38, align 8, !tbaa !8
  %39 = load ptr, ptr %6, align 8, !tbaa !75
  %40 = getelementptr inbounds nuw %struct.tag_contents, ptr %39, i32 0, i32 0
  store i64 0, ptr %40, align 8, !tbaa !53
  store i32 0, ptr %8, align 4
  br label %41

41:                                               ; preds = %23, %22
  call void @llvm.lifetime.end.p0(i64 8, ptr %7) #12
  %42 = load i32, ptr %8, align 4
  switch i32 %42, label %44 [
    i32 0, label %43
    i32 1, label %43
  ]

43:                                               ; preds = %41, %41
  ret void

44:                                               ; preds = %41
  unreachable
}