; Function Attrs: inlinehint nounwind uwtable
define internal fastcc void @html_tag_contents_done(ptr noundef readonly captures(none) %0, i32 noundef %1, ptr noundef nonnull captures(none) %2) unnamed_addr #10 {
  %4 = getelementptr inbounds nuw i8, ptr %2, i64 8
  %5 = load i64, ptr %2, align 8, !tbaa !32
  %6 = add i64 %5, 1
  store i64 %6, ptr %2, align 8, !tbaa !32
  %7 = getelementptr inbounds nuw [1025 x i8], ptr %4, i64 0, i64 %5
  store i8 0, ptr %7, align 1, !tbaa !16
  %8 = tail call ptr @cli_max_malloc(i64 noundef %6) #17
  %.not = icmp eq ptr %8, null
  br i1 %.not, label %9, label %10

9:                                                ; preds = %3
  tail call void (ptr, ...) @cli_errmsg(ptr noundef nonnull @.str.52) #17
  br label %17

10:                                               ; preds = %3
  %11 = load i64, ptr %2, align 8, !tbaa !32
  tail call void @llvm.memcpy.p0.p0.i64(ptr nonnull align 1 %8, ptr nonnull align 8 %4, i64 %11, i1 false)
  %12 = getelementptr inbounds nuw i8, ptr %0, i64 24
  %13 = load ptr, ptr %12, align 8, !tbaa !13
  %14 = sext i32 %1 to i64
  %15 = getelementptr ptr, ptr %13, i64 %14
  %16 = getelementptr i8, ptr %15, i64 -8
  store ptr %8, ptr %16, align 8, !tbaa !14
  store i64 0, ptr %2, align 8, !tbaa !32
  br label %17

17:                                               ; preds = %10, %9
  ret void
}